target datalayout = "e-m:e-p270:32:32-p271:32:32-p272:64:64-i64:64-i128:128-f80:128-n8:16:32:64-S128"
target triple = "x86_64-pc-linux-gnu"

%"class.llvm::InstructionCost" = type <{ i64, i32, [4 x i8] }>

; Function Attrs: mustprogress nounwind uwtable
define linkonce_odr hidden void @_ZN4llvm15InstructionCostC2El(ptr noundef nonnull align 8 dereferenceable(12) %0, i64 noundef %1) unnamed_addr #0 comdat align 2 {
  %3 = alloca ptr, align 8
  %4 = alloca i64, align 8
  store ptr %0, ptr %3, align 8
  store i64 %1, ptr %4, align 8
  %5 = load ptr, ptr %3, align 8
  %6 = getelementptr inbounds nuw %"class.llvm::InstructionCost", ptr %5, i32 0, i32 0
  %7 = load i64, ptr %4, align 8
  store i64 %7, ptr %6, align 8
  %8 = getelementptr inbounds nuw %"class.llvm::InstructionCost", ptr %5, i32 0, i32 1
  store i32 0, ptr %8, align 8
  ret void
}

; Function Attrs: mustprogress nounwind uwtable
define dso_local { i64, i32 } @_ZN4llvm10X86TTIImpl14getCFInstrCostEjNS_19TargetTransformInfo14TargetCostKindEPKNS_11InstructionE(ptr noundef nonnull align 8 dereferenceable(72) %0, i32 noundef %1, i32 noundef %2, ptr noundef %3) #0 align 2 {
  %5 = alloca %"class.llvm::InstructionCost", align 8
  %6 = alloca ptr, align 8
  %7 = alloca i32, align 4
  %8 = alloca i32, align 4
  %9 = alloca ptr, align 8
  store ptr %0, ptr %6, align 8
  store i32 %1, ptr %7, align 4
  store i32 %2, ptr %8, align 4
  store ptr %3, ptr %9, align 8
  %10 = load i32, ptr %8, align 4
  %11 = icmp ne i32 %10, 0
  br i1 %11, label %12, label %17

12:                                               ; preds = %4
  %13 = load i32, ptr %7, align 4
  %14 = icmp eq i32 %13, 55
  %15 = select i1 %14, i32 0, i32 1
  %16 = sext i32 %15 to i64
  call void @_ZN4llvm15InstructionCostC2El(ptr noundef nonnull align 8 dereferenceable(12) %5, i64 noundef %16)
  br label %18

17:                                               ; preds = %4
  call void @_ZN4llvm15InstructionCostC2El(ptr noundef nonnull align 8 dereferenceable(12) %5, i64 noundef 0)
  br label %18

18:                                               ; preds = %17, %12
  %19 = load { i64, i32 }, ptr %5, align 8
  ret { i64, i32 } %19
}