; Function Attrs: mustprogress nofree norecurse nosync nounwind willreturn memory(none) uwtable
define dso_local { i64, i32 } @_ZN4llvm10X86TTIImpl14getCFInstrCostEjNS_19TargetTransformInfo14TargetCostKindEPKNS_11InstructionE(ptr noundef nonnull readnone align 8 captures(none) dereferenceable(72) %0, i32 noundef %1, i32 noundef %2, ptr noundef readnone captures(none) %3) local_unnamed_addr #1 align 2 {
  %.not = icmp ne i32 %2, 0
  %5 = icmp ne i32 %1, 55
  %narrow = and i1 %5, %.not
  %.sroa.0.0 = zext i1 %narrow to i64
  %.fca.0.insert = insertvalue { i64, i32 } poison, i64 %.sroa.0.0, 0
  %.fca.1.insert = insertvalue { i64, i32 } %.fca.0.insert, i32 0, 1
  ret { i64, i32 } %.fca.1.insert
}